target datalayout = "e-m:e-p270:32:32-p271:32:32-p272:64:64-i64:64-i128:128-f80:128-n8:16:32:64-S128"
target triple = "x86_64-pc-linux-gnu"

%"class.gmx::AnalysisDataHandle" = type { ptr }
%"class.gmx::internal::AnalysisDataHandleImpl" = type { ptr, ptr }
%class.anon.53 = type { i8 }
%class.anon.55 = type { i8 }
%"class.gmx::AnalysisDataStorageFrame" = type <{ ptr, %"class.std::vector.44", i32, i32, i32, i8, [3 x i8] }>
%"class.std::vector.44" = type { %"struct.std::_Vector_base.45" }
%"struct.std::_Vector_base.45" = type { %"struct.std::_Vector_base<gmx::AnalysisDataValue, std::allocator<gmx::AnalysisDataValue>>::_Vector_impl" }
%"struct.std::_Vector_base<gmx::AnalysisDataValue, std::allocator<gmx::AnalysisDataValue>>::_Vector_impl" = type { %"struct.std::_Vector_base<gmx::AnalysisDataValue, std::allocator<gmx::AnalysisDataValue>>::_Vector_impl_data" }
%"struct.std::_Vector_base<gmx::AnalysisDataValue, std::allocator<gmx::AnalysisDataValue>>::_Vector_impl_data" = type { ptr, ptr, ptr }
%"class.gmx::AnalysisDataValue" = type { float, float, %"class.gmx::FlagsTemplate" }
%"class.gmx::FlagsTemplate" = type { i64 }

@.str.2 = private unnamed_addr constant [135 x i8] c"generated/home/dtcxzyw/WorkSpace/Projects/compilers/llvm-opt-benchmark/bench/gromacs/gromacs/src/gromacs/analysisdata/analysisdata.cpp\00", align 1
@.str.9 = private unnamed_addr constant [17 x i8] c"impl_ != nullptr\00", align 1
@.str.10 = private unnamed_addr constant [25 x i8] c"Invalid data handle used\00", align 1
@.str.13 = private unnamed_addr constant [32 x i8] c"impl_->currentFrame_ != nullptr\00", align 1
@"__PRETTY_FUNCTION__._ZZN3gmx18AnalysisDataHandle8setPointEifbENK3$_0clEv" = private unnamed_addr constant [95 x i8] c"auto gmx::AnalysisDataHandle::setPoint(int, real, bool)::(anonymous class)::operator()() const\00", align 1
@.str.15 = private unnamed_addr constant [47 x i8] c"setPoint() called without calling startFrame()\00", align 1

; Function Attrs: mustprogress nounwind uwtable
define linkonce_odr void @_ZN3gmx13FlagsTemplateINS_17AnalysisDataValue4FlagEE5clearES2_(ptr noundef nonnull align 8 dereferenceable(8) %0, i64 noundef %1) #0 comdat align 2 {
  %3 = alloca ptr, align 8
  %4 = alloca i64, align 8
  store ptr %0, ptr %3, align 8, !tbaa !137
  store i64 %1, ptr %4, align 8, !tbaa !139
  %5 = load ptr, ptr %3, align 8
  %6 = load i64, ptr %4, align 8, !tbaa !139
  %7 = xor i64 %6, -1
  %8 = getelementptr inbounds nuw %"class.gmx::FlagsTemplate", ptr %5, i32 0, i32 0
  %9 = load i64, ptr %8, align 8, !tbaa !141
  %10 = and i64 %9, %7
  store i64 %10, ptr %8, align 8, !tbaa !141
  ret void
}

; Function Attrs: mustprogress uwtable
define linkonce_odr void @_ZN3gmx13FlagsTemplateINS_17AnalysisDataValue4FlagEE3setES2_b(ptr noundef nonnull align 8 dereferenceable(8) %0, i64 noundef %1, i1 noundef zeroext %2) #1 comdat align 2 {
  %4 = alloca ptr, align 8
  %5 = alloca i64, align 8
  %6 = alloca i8, align 1
  store ptr %0, ptr %4, align 8, !tbaa !137
  store i64 %1, ptr %5, align 8, !tbaa !139
  %7 = zext i1 %2 to i8
  store i8 %7, ptr %6, align 1, !tbaa !85
  %8 = load ptr, ptr %4, align 8
  %9 = load i8, ptr %6, align 1, !tbaa !85, !range !87, !noundef !88
  %10 = trunc i8 %9 to i1
  br i1 %10, label %11, label %13

11:                                               ; preds = %3
  %12 = load i64, ptr %5, align 8, !tbaa !139
  call void @_ZN3gmx13FlagsTemplateINS_17AnalysisDataValue4FlagEE3setES2_(ptr noundef nonnull align 8 dereferenceable(8) %8, i64 noundef %12)
  br label %15

13:                                               ; preds = %3
  %14 = load i64, ptr %5, align 8, !tbaa !139
  call void @_ZN3gmx13FlagsTemplateINS_17AnalysisDataValue4FlagEE5clearES2_(ptr noundef nonnull align 8 dereferenceable(8) %8, i64 noundef %14)
  br label %15

15:                                               ; preds = %13, %11
  ret void
}

; Function Attrs: mustprogress nounwind uwtable
define linkonce_odr void @_ZN3gmx13FlagsTemplateINS_17AnalysisDataValue4FlagEE3setES2_(ptr noundef nonnull align 8 dereferenceable(8) %0, i64 noundef %1) #0 comdat align 2 {
  %3 = alloca ptr, align 8
  %4 = alloca i64, align 8
  store ptr %0, ptr %3, align 8, !tbaa !137
  store i64 %1, ptr %4, align 8, !tbaa !139
  %5 = load ptr, ptr %3, align 8
  %6 = load i64, ptr %4, align 8, !tbaa !139
  %7 = getelementptr inbounds nuw %"class.gmx::FlagsTemplate", ptr %5, i32 0, i32 0
  %8 = load i64, ptr %7, align 8, !tbaa !141
  %9 = or i64 %8, %6
  store i64 %9, ptr %7, align 8, !tbaa !141
  ret void
}

; Function Attrs: mustprogress uwtable
define linkonce_odr void @_ZN3gmx17AnalysisDataValue8setValueEfb(ptr noundef nonnull align 8 dereferenceable(16) %0, float noundef %1, i1 noundef zeroext %2) #1 comdat align 2 {
  %4 = alloca ptr, align 8
  %5 = alloca float, align 4
  %6 = alloca i8, align 1
  store ptr %0, ptr %4, align 8, !tbaa !133
  store float %1, ptr %5, align 4, !tbaa !117
  %7 = zext i1 %2 to i8
  store i8 %7, ptr %6, align 1, !tbaa !85
  %8 = load ptr, ptr %4, align 8
  %9 = load float, ptr %5, align 4, !tbaa !117
  %10 = getelementptr inbounds nuw %"class.gmx::AnalysisDataValue", ptr %8, i32 0, i32 0
  store float %9, ptr %10, align 8, !tbaa !134
  %11 = getelementptr inbounds nuw %"class.gmx::AnalysisDataValue", ptr %8, i32 0, i32 2
  call void @_ZN3gmx13FlagsTemplateINS_17AnalysisDataValue4FlagEE3setES2_(ptr noundef nonnull align 8 dereferenceable(8) %11, i64 noundef 1)
  %12 = getelementptr inbounds nuw %"class.gmx::AnalysisDataValue", ptr %8, i32 0, i32 2
  %13 = load i8, ptr %6, align 1, !tbaa !85, !range !87, !noundef !88
  %14 = trunc i8 %13 to i1
  call void @_ZN3gmx13FlagsTemplateINS_17AnalysisDataValue4FlagEE3setES2_b(ptr noundef nonnull align 8 dereferenceable(8) %12, i64 noundef 4, i1 noundef zeroext %14)
  ret void
}

; Function Attrs: mustprogress nounwind uwtable
define linkonce_odr noundef nonnull align 8 dereferenceable(16) ptr @_ZNSt6vectorIN3gmx17AnalysisDataValueESaIS1_EEixEm(ptr noundef nonnull align 8 dereferenceable(24) %0, i64 noundef %1) #0 comdat align 2 {
  %3 = alloca ptr, align 8
  %4 = alloca i64, align 8
  store ptr %0, ptr %3, align 8, !tbaa !130
  store i64 %1, ptr %4, align 8, !tbaa !76
  %5 = load ptr, ptr %3, align 8
  %6 = getelementptr inbounds nuw %"struct.std::_Vector_base.45", ptr %5, i32 0, i32 0
  %7 = getelementptr inbounds nuw %"struct.std::_Vector_base<gmx::AnalysisDataValue, std::allocator<gmx::AnalysisDataValue>>::_Vector_impl_data", ptr %6, i32 0, i32 0
  %8 = load ptr, ptr %7, align 8, !tbaa !132
  %9 = load i64, ptr %4, align 8, !tbaa !76
  %10 = getelementptr inbounds nuw %"class.gmx::AnalysisDataValue", ptr %8, i64 %9
  ret ptr %10
}

; Function Attrs: mustprogress uwtable
define linkonce_odr void @_ZN3gmx24AnalysisDataStorageFrame8setValueEifb(ptr noundef nonnull align 8 dereferenceable(45) %0, i32 noundef %1, float noundef %2, i1 noundef zeroext %3) #1 comdat align 2 {
  %5 = alloca ptr, align 8
  %6 = alloca i32, align 4
  %7 = alloca float, align 4
  %8 = alloca i8, align 1
  store ptr %0, ptr %5, align 8, !tbaa !120
  store i32 %1, ptr %6, align 4, !tbaa !9
  store float %2, ptr %7, align 4, !tbaa !117
  %9 = zext i1 %3 to i8
  store i8 %9, ptr %8, align 1, !tbaa !85
  %10 = load ptr, ptr %5, align 8
  %11 = getelementptr inbounds nuw %"class.gmx::AnalysisDataStorageFrame", ptr %10, i32 0, i32 1
  %12 = getelementptr inbounds nuw %"class.gmx::AnalysisDataStorageFrame", ptr %10, i32 0, i32 3
  %13 = load i32, ptr %12, align 4, !tbaa !121
  %14 = load i32, ptr %6, align 4, !tbaa !9
  %15 = add nsw i32 %13, %14
  %16 = sext i32 %15 to i64
  %17 = call noundef nonnull align 8 dereferenceable(16) ptr @_ZNSt6vectorIN3gmx17AnalysisDataValueESaIS1_EEixEm(ptr noundef nonnull align 8 dereferenceable(24) %11, i64 noundef %16) #13
  %18 = load float, ptr %7, align 4, !tbaa !117
  %19 = load i8, ptr %8, align 1, !tbaa !85, !range !87, !noundef !88
  %20 = trunc i8 %19 to i1
  call void @_ZN3gmx17AnalysisDataValue8setValueEfb(ptr noundef nonnull align 8 dereferenceable(16) %17, float noundef %18, i1 noundef zeroext %20)
  %21 = getelementptr inbounds nuw %"class.gmx::AnalysisDataStorageFrame", ptr %10, i32 0, i32 5
  store i8 1, ptr %21, align 4, !tbaa !129
  ret void
}

; Function Attrs: inlinehint mustprogress uwtable
define internal void @"_ZZN3gmx18AnalysisDataHandle8setPointEifbENK3$_1clEv"(ptr noundef nonnull align 1 dereferenceable(1) %0) #4 align 2 {
  %2 = alloca ptr, align 8
  store ptr %0, ptr %2, align 8, !tbaa !78
  call void @_ZN3gmx8internal13assertHandlerEPKcS2_S2_S2_i(ptr noundef @.str.13, ptr noundef @.str.15, ptr noundef @"__PRETTY_FUNCTION__._ZZN3gmx18AnalysisDataHandle8setPointEifbENK3$_0clEv", ptr noundef @.str.2, i32 noundef 240) #17
  unreachable
}

; Function Attrs: inlinehint mustprogress uwtable
define internal void @"_ZZN3gmx18AnalysisDataHandle8setPointEifbENK3$_0clEv"(ptr noundef nonnull align 1 dereferenceable(1) %0) #4 align 2 {
  %2 = alloca ptr, align 8
  store ptr %0, ptr %2, align 8, !tbaa !78
  call void @_ZN3gmx8internal13assertHandlerEPKcS2_S2_S2_i(ptr noundef @.str.9, ptr noundef @.str.10, ptr noundef @"__PRETTY_FUNCTION__._ZZN3gmx18AnalysisDataHandle8setPointEifbENK3$_0clEv", ptr noundef @.str.2, i32 noundef 238) #17
  unreachable
}

; Function Attrs: mustprogress uwtable
define void @_ZN3gmx18AnalysisDataHandle8setPointEifb(ptr noundef nonnull align 8 dereferenceable(8) %0, i32 noundef %1, float noundef %2, i1 noundef zeroext %3) #1 align 2 {
  %5 = alloca ptr, align 8
  %6 = alloca i32, align 4
  %7 = alloca float, align 4
  %8 = alloca i8, align 1
  %9 = alloca %class.anon.53, align 1
  %10 = alloca %class.anon.55, align 1
  store ptr %0, ptr %5, align 8, !tbaa !115
  store i32 %1, ptr %6, align 4, !tbaa !9
  store float %2, ptr %7, align 4, !tbaa !117
  %11 = zext i1 %3 to i8
  store i8 %11, ptr %8, align 1, !tbaa !85
  %12 = load ptr, ptr %5, align 8
  %13 = getelementptr inbounds nuw %"class.gmx::AnalysisDataHandle", ptr %12, i32 0, i32 0
  %14 = load ptr, ptr %13, align 8, !tbaa !111
  %15 = icmp ne ptr %14, null
  call void @llvm.lifetime.start.p0(i64 1, ptr %9) #13
  br i1 %15, label %16, label %17

16:                                               ; preds = %4
  br label %18

17:                                               ; preds = %4
  call void @"_ZZN3gmx18AnalysisDataHandle8setPointEifbENK3$_0clEv"(ptr noundef nonnull align 1 dereferenceable(1) %9)
  br label %18

18:                                               ; preds = %17, %16
  call void @llvm.lifetime.end.p0(i64 1, ptr %9) #13
  %19 = getelementptr inbounds nuw %"class.gmx::AnalysisDataHandle", ptr %12, i32 0, i32 0
  %20 = load ptr, ptr %19, align 8, !tbaa !111
  %21 = getelementptr inbounds nuw %"class.gmx::internal::AnalysisDataHandleImpl", ptr %20, i32 0, i32 1
  %22 = load ptr, ptr %21, align 8, !tbaa !93
  %23 = icmp ne ptr %22, null
  call void @llvm.lifetime.start.p0(i64 1, ptr %10) #13
  br i1 %23, label %24, label %25

24:                                               ; preds = %18
  br label %26

25:                                               ; preds = %18
  call void @"_ZZN3gmx18AnalysisDataHandle8setPointEifbENK3$_1clEv"(ptr noundef nonnull align 1 dereferenceable(1) %10)
  br label %26

26:                                               ; preds = %25, %24
  call void @llvm.lifetime.end.p0(i64 1, ptr %10) #13
  %27 = getelementptr inbounds nuw %"class.gmx::AnalysisDataHandle", ptr %12, i32 0, i32 0
  %28 = load ptr, ptr %27, align 8, !tbaa !111
  %29 = getelementptr inbounds nuw %"class.gmx::internal::AnalysisDataHandleImpl", ptr %28, i32 0, i32 1
  %30 = load ptr, ptr %29, align 8, !tbaa !93
  %31 = load i32, ptr %6, align 4, !tbaa !9
  %32 = load float, ptr %7, align 4, !tbaa !117
  %33 = load i8, ptr %8, align 1, !tbaa !85, !range !87, !noundef !88
  %34 = trunc i8 %33 to i1
  call void @_ZN3gmx24AnalysisDataStorageFrame8setValueEifb(ptr noundef nonnull align 8 dereferenceable(45) %30, i32 noundef %31, float noundef %32, i1 noundef zeroext %34)
  ret void
}