; Function Attrs: mustprogress uwtable
define void @_ZN3gmx18AnalysisDataHandle8setPointEifb(ptr noundef nonnull readonly align 8 captures(none) dereferenceable(8) %0, i32 noundef %1, float noundef %2, i1 noundef zeroext %3) local_unnamed_addr #1 align 2 {
  %5 = load ptr, ptr %0, align 8, !tbaa !37
  %.not = icmp eq ptr %5, null
  br i1 %.not, label %6, label %7

6:                                                ; preds = %4
  tail call void @_ZN3gmx8internal13assertHandlerEPKcS2_S2_S2_i(ptr noundef nonnull @.str.9, ptr noundef nonnull @.str.10, ptr noundef nonnull @"__PRETTY_FUNCTION__._ZZN3gmx18AnalysisDataHandle8setPointEifbENK3$_0clEv", ptr noundef nonnull @.str.2, i32 noundef 238) #15
  unreachable

7:                                                ; preds = %4
  %8 = getelementptr inbounds nuw i8, ptr %5, i64 8
  %9 = load ptr, ptr %8, align 8, !tbaa !26
  %.not3 = icmp eq ptr %9, null
  br i1 %.not3, label %10, label %11

10:                                               ; preds = %7
  tail call void @_ZN3gmx8internal13assertHandlerEPKcS2_S2_S2_i(ptr noundef nonnull @.str.13, ptr noundef nonnull @.str.15, ptr noundef nonnull @"__PRETTY_FUNCTION__._ZZN3gmx18AnalysisDataHandle8setPointEifbENK3$_0clEv", ptr noundef nonnull @.str.2, i32 noundef 240) #15
  unreachable

11:                                               ; preds = %7
  %12 = getelementptr inbounds nuw i8, ptr %9, i64 8
  %13 = getelementptr inbounds nuw i8, ptr %9, i64 36
  %14 = load i32, ptr %13, align 4, !tbaa !40
  %15 = add nsw i32 %14, %1
  %16 = sext i32 %15 to i64
  %17 = load ptr, ptr %12, align 8, !tbaa !49
  %18 = getelementptr inbounds nuw %"class.gmx::AnalysisDataValue", ptr %17, i64 %16
  store float %2, ptr %18, align 8, !tbaa !50
  %19 = getelementptr inbounds nuw i8, ptr %18, i64 8
  %20 = load i64, ptr %19, align 8, !tbaa !55
  %21 = and i64 %20, -6
  %22 = or disjoint i64 %21, 1
  %23 = or i64 %20, 5
  %storemerge.i.i.i = select i1 %3, i64 %23, i64 %22
  store i64 %storemerge.i.i.i, ptr %19, align 8, !tbaa !55
  %24 = getelementptr inbounds nuw i8, ptr %9, i64 44
  store i8 1, ptr %24, align 4, !tbaa !56
  ret void
}